target datalayout = "e-m:e-p270:32:32-p271:32:32-p272:64:64-i64:64-i128:128-f80:128-n8:16:32:64-S128"
target triple = "x86_64-pc-linux-gnu"

%struct.servent = type { ptr, ptr, i32, ptr }

@PyExc_OSError = external global ptr, align 8
@.str.51 = private unnamed_addr constant [18 x i8] c"s|s:getservbyname\00", align 1
@.str.52 = private unnamed_addr constant [21 x i8] c"socket.getservbyname\00", align 1
@.str.53 = private unnamed_addr constant [3 x i8] c"ss\00", align 1
@.str.54 = private unnamed_addr constant [24 x i8] c"service/proto not found\00", align 1

; Function Attrs: inlinehint nounwind uwtable
define internal zeroext i16 @__bswap_16(i16 noundef zeroext %0) #3 {
  %2 = alloca i16, align 2
  store i16 %0, ptr %2, align 2, !tbaa !104
  %3 = load i16, ptr %2, align 2, !tbaa !104
  %4 = zext i16 %3 to i32
  %5 = ashr i32 %4, 8
  %6 = and i32 %5, 255
  %7 = load i16, ptr %2, align 2, !tbaa !104
  %8 = zext i16 %7 to i32
  %9 = and i32 %8, 255
  %10 = shl i32 %9, 8
  %11 = or i32 %6, %10
  %12 = trunc i32 %11 to i16
  ret i16 %12
}

; Function Attrs: nounwind uwtable
define internal ptr @socket_getservbyname(ptr noundef %0, ptr noundef %1) #0 {
  %3 = alloca ptr, align 8
  %4 = alloca ptr, align 8
  %5 = alloca ptr, align 8
  %6 = alloca ptr, align 8
  %7 = alloca ptr, align 8
  %8 = alloca ptr, align 8
  %9 = alloca i32, align 4
  %10 = alloca ptr, align 8
  store ptr %0, ptr %4, align 8, !tbaa !3
  store ptr %1, ptr %5, align 8, !tbaa !3
  call void @llvm.lifetime.start.p0(i64 8, ptr %6) #10
  call void @llvm.lifetime.start.p0(i64 8, ptr %7) #10
  store ptr null, ptr %7, align 8, !tbaa !24
  call void @llvm.lifetime.start.p0(i64 8, ptr %8) #10
  %11 = load ptr, ptr %5, align 8, !tbaa !3
  %12 = call i32 (ptr, ptr, ...) @PyArg_ParseTuple(ptr noundef %11, ptr noundef @.str.51, ptr noundef %6, ptr noundef %7)
  %13 = icmp ne i32 %12, 0
  br i1 %13, label %15, label %14

14:                                               ; preds = %2
  store ptr null, ptr %3, align 8
  store i32 1, ptr %9, align 4
  br label %39

15:                                               ; preds = %2
  %16 = load ptr, ptr %6, align 8, !tbaa !24
  %17 = load ptr, ptr %7, align 8, !tbaa !24
  %18 = call i32 (ptr, ptr, ...) @PySys_Audit(ptr noundef @.str.52, ptr noundef @.str.53, ptr noundef %16, ptr noundef %17)
  %19 = icmp slt i32 %18, 0
  br i1 %19, label %20, label %21

20:                                               ; preds = %15
  store ptr null, ptr %3, align 8
  store i32 1, ptr %9, align 4
  br label %39

21:                                               ; preds = %15
  call void @llvm.lifetime.start.p0(i64 8, ptr %10) #10
  %22 = call ptr @PyEval_SaveThread()
  store ptr %22, ptr %10, align 8, !tbaa !26
  %23 = load ptr, ptr %6, align 8, !tbaa !24
  %24 = load ptr, ptr %7, align 8, !tbaa !24
  %25 = call ptr @getservbyname(ptr noundef %23, ptr noundef %24)
  store ptr %25, ptr %8, align 8, !tbaa !40
  %26 = load ptr, ptr %10, align 8, !tbaa !26
  call void @PyEval_RestoreThread(ptr noundef %26)
  call void @llvm.lifetime.end.p0(i64 8, ptr %10) #10
  %27 = load ptr, ptr %8, align 8, !tbaa !40
  %28 = icmp eq ptr %27, null
  br i1 %28, label %29, label %31

29:                                               ; preds = %21
  %30 = load ptr, ptr @PyExc_OSError, align 8, !tbaa !3
  call void @PyErr_SetString(ptr noundef %30, ptr noundef @.str.54)
  store ptr null, ptr %3, align 8
  store i32 1, ptr %9, align 4
  br label %39

31:                                               ; preds = %21
  %32 = load ptr, ptr %8, align 8, !tbaa !40
  %33 = getelementptr inbounds nuw %struct.servent, ptr %32, i32 0, i32 2
  %34 = load i32, ptr %33, align 8, !tbaa !42
  %35 = trunc i32 %34 to i16
  %36 = call zeroext i16 @__bswap_16(i16 noundef zeroext %35)
  %37 = zext i16 %36 to i64
  %38 = call ptr @PyLong_FromLong(i64 noundef %37)
  store ptr %38, ptr %3, align 8
  store i32 1, ptr %9, align 4
  br label %39

39:                                               ; preds = %31, %29, %20, %14
  call void @llvm.lifetime.end.p0(i64 8, ptr %8) #10
  call void @llvm.lifetime.end.p0(i64 8, ptr %7) #10
  call void @llvm.lifetime.end.p0(i64 8, ptr %6) #10
  %40 = load ptr, ptr %3, align 8
  ret ptr %40
}