; Function Attrs: nounwind uwtable
define internal ptr @socket_getservbyname(ptr readnone captures(none) %0, ptr noundef %1) #0 {
  %3 = alloca ptr, align 8
  %4 = alloca ptr, align 8
  call void @llvm.lifetime.start.p0(i64 8, ptr nonnull %3) #13
  call void @llvm.lifetime.start.p0(i64 8, ptr nonnull %4) #13
  store ptr null, ptr %4, align 8, !tbaa !20
  %5 = call i32 (ptr, ptr, ...) @PyArg_ParseTuple(ptr noundef %1, ptr noundef nonnull @.str.51, ptr noundef nonnull %3, ptr noundef nonnull %4) #13
  %.not = icmp eq i32 %5, 0
  br i1 %.not, label %25, label %6

6:                                                ; preds = %2
  %7 = load ptr, ptr %3, align 8, !tbaa !20
  %8 = load ptr, ptr %4, align 8, !tbaa !20
  %9 = call i32 (ptr, ptr, ...) @PySys_Audit(ptr noundef nonnull @.str.52, ptr noundef nonnull @.str.53, ptr noundef %7, ptr noundef %8) #13
  %10 = icmp slt i32 %9, 0
  br i1 %10, label %25, label %11

11:                                               ; preds = %6
  %12 = call ptr @PyEval_SaveThread() #13
  %13 = load ptr, ptr %3, align 8, !tbaa !20
  %14 = load ptr, ptr %4, align 8, !tbaa !20
  %15 = call ptr @getservbyname(ptr noundef %13, ptr noundef %14) #13
  call void @PyEval_RestoreThread(ptr noundef %12) #13
  %16 = icmp eq ptr %15, null
  br i1 %16, label %17, label %19

17:                                               ; preds = %11
  %18 = load ptr, ptr @PyExc_OSError, align 8, !tbaa !19
  call void @PyErr_SetString(ptr noundef %18, ptr noundef nonnull @.str.54) #13
  br label %25

19:                                               ; preds = %11
  %20 = getelementptr inbounds nuw i8, ptr %15, i64 16
  %21 = load i32, ptr %20, align 8, !tbaa !32
  %22 = trunc i32 %21 to i16
  %rev.i = call noundef i16 @llvm.bswap.i16(i16 %22)
  %23 = zext i16 %rev.i to i64
  %24 = call ptr @PyLong_FromLong(i64 noundef %23) #13
  br label %25

25:                                               ; preds = %6, %2, %19, %17
  %.0 = phi ptr [ null, %17 ], [ %24, %19 ], [ null, %2 ], [ null, %6 ]
  call void @llvm.lifetime.end.p0(i64 8, ptr nonnull %4) #13
  call void @llvm.lifetime.end.p0(i64 8, ptr nonnull %3) #13
  ret ptr %.0
}